; Function Attrs: mustprogress nounwind uwtable
define void @_ZN7glslang13TIntermediate20addSymbolLinkageNodeERPNS_16TIntermAggregateERNS_12TSymbolTableERKNSt7__cxx1112basic_stringIcSt11char_traitsIcENS_14pool_allocatorIcEEEE(ptr nocapture noundef nonnull readnone align 8 dereferenceable(2024) %0, ptr nocapture noundef nonnull align 8 dereferenceable(8) %1, ptr noundef nonnull align 8 dereferenceable(40) %2, ptr noundef nonnull align 8 dereferenceable(40) %3) local_unnamed_addr #0 align 2 {
  %5 = tail call noundef ptr @_ZN7glslang12TSymbolTable4findERKNSt7__cxx1112basic_stringIcSt11char_traitsIcENS_14pool_allocatorIcEEEEPbSA_Pi(ptr noundef nonnull align 8 dereferenceable(40) %2, ptr noundef nonnull align 8 dereferenceable(40) %3, ptr noundef null, ptr noundef null, ptr noundef null)
  %.not = icmp eq ptr %5, null
  br i1 %.not, label %11, label %6

6:                                                ; preds = %4
  %7 = load ptr, ptr %5, align 8
  %8 = getelementptr inbounds i8, ptr %7, i64 72
  %9 = load ptr, ptr %8, align 8
  %10 = tail call noundef ptr %9(ptr noundef nonnull align 8 dereferenceable(33) %5) #17
  tail call void @_ZN7glslang13TIntermediate20addSymbolLinkageNodeERPNS_16TIntermAggregateERKNS_7TSymbolE(ptr nonnull align 8 poison, ptr noundef nonnull align 8 dereferenceable(8) %1, ptr noundef nonnull align 8 dereferenceable(33) %10)
  br label %11

11:                                               ; preds = %6, %4
  ret void
}